; Function Attrs: mustprogress nofree norecurse nosync nounwind willreturn memory(argmem: readwrite) uwtable
define hidden void @_ZN10smt_params11updt_paramsERK14context_params(ptr nocapture noundef nonnull writeonly align 8 dereferenceable(800) %this, ptr nocapture noundef nonnull readonly align 8 dereferenceable(120) %p) local_unnamed_addr #5 align 2 {
entry:
  %m_auto_config = getelementptr inbounds i8, ptr %p, i64 72
  %0 = load i8, ptr %m_auto_config, align 8
  %1 = and i8 %0, 1
  %m_auto_config2 = getelementptr inbounds i8, ptr %this, i64 771
  store i8 %1, ptr %m_auto_config2, align 1
  %m_model = getelementptr inbounds i8, ptr %p, i64 77
  %2 = load i8, ptr %m_model, align 1
  %3 = and i8 %2, 1
  %m_model4 = getelementptr inbounds i8, ptr %this, i64 755
  store i8 %3, ptr %m_model4, align 1
  ret void
}